; Function Attrs: mustprogress uwtable
define void @_ZN5faiss18IndexNNDescentFlatC2EiiNS_10MetricTypeE(ptr noundef nonnull align 8 dereferenceable(144) %0, i32 noundef %1, i32 noundef %2, i32 noundef %3) unnamed_addr #1 align 2 personality ptr @__gxx_personality_v0 {
  %5 = tail call noalias noundef nonnull dereferenceable(72) ptr @_Znwm(i64 noundef 72) #18
  %6 = sext i32 %1 to i64
  invoke void @_ZN5faiss9IndexFlatC1ElNS_10MetricTypeE(ptr noundef nonnull align 8 dereferenceable(72) %5, i64 noundef %6, i32 noundef %3)
          to label %7 unwind label %23

7:                                                ; preds = %4
  %8 = getelementptr inbounds i8, ptr %5, i64 8
  %9 = load i32, ptr %8, align 8
  %10 = getelementptr inbounds i8, ptr %5, i64 28
  %11 = load i32, ptr %10, align 4
  %12 = getelementptr inbounds i8, ptr %0, i64 8
  store i32 %9, ptr %12, align 8
  %13 = getelementptr inbounds i8, ptr %0, i64 16
  store i64 0, ptr %13, align 8
  %14 = getelementptr inbounds i8, ptr %0, i64 24
  store i8 0, ptr %14, align 8
  %15 = getelementptr inbounds i8, ptr %0, i64 25
  store i8 1, ptr %15, align 1
  %16 = getelementptr inbounds i8, ptr %0, i64 28
  store i32 %11, ptr %16, align 4
  %17 = getelementptr inbounds i8, ptr %0, i64 32
  store float 0.000000e+00, ptr %17, align 8
  store ptr getelementptr inbounds ({ [24 x ptr] }, ptr @_ZTVN5faiss14IndexNNDescentE, i64 0, i32 0, i64 2), ptr %0, align 8
  %18 = getelementptr inbounds i8, ptr %0, i64 40
  invoke void @_ZN5faiss9NNDescentC1Eii(ptr noundef nonnull align 8 dereferenceable(88) %18, i32 noundef %9, i32 noundef %2)
          to label %_ZN5faiss14IndexNNDescentC2EPNS_5IndexEi.exit unwind label %19

common.resume:                                    ; preds = %23, %19
  %common.resume.op = phi { ptr, i32 } [ %20, %19 ], [ %24, %23 ]
  resume { ptr, i32 } %common.resume.op

19:                                               ; preds = %7
  %20 = landingpad { ptr, i32 }
          cleanup
  tail call void @_ZN5faiss5IndexD2Ev(ptr noundef nonnull align 8 dereferenceable(36) %0) #8
  br label %common.resume

_ZN5faiss14IndexNNDescentC2EPNS_5IndexEi.exit:    ; preds = %7
  %21 = getelementptr inbounds i8, ptr %0, i64 128
  %22 = getelementptr inbounds i8, ptr %0, i64 136
  store ptr %5, ptr %22, align 8
  store ptr getelementptr inbounds ({ [24 x ptr] }, ptr @_ZTVN5faiss18IndexNNDescentFlatE, i64 0, i32 0, i64 2), ptr %0, align 8
  store i8 1, ptr %21, align 8
  store i8 1, ptr %15, align 1
  ret void

23:                                               ; preds = %4
  %24 = landingpad { ptr, i32 }
          cleanup
  tail call void @_ZdlPv(ptr noundef nonnull %5) #15
  br label %common.resume
}